; Function Attrs: null_pointer_is_valid sspstrong uwtable
define hidden noundef i32 @witness_dissect_struct_IPaddrInfo(ptr noundef %0, i32 noundef %1, ptr noundef %2, ptr noundef %3, ptr noundef %4, ptr noundef %5, i32 noundef %6, i32 %7) local_unnamed_addr #0 {
  %9 = getelementptr inbounds nuw i8, ptr %4, i64 26
  %10 = load i8, ptr %9, align 2, !range !6, !noundef !7
  store i8 1, ptr %9, align 2
  %.not = icmp eq ptr %3, null
  br i1 %.not, label %15, label %11

11:                                               ; preds = %8
  %12 = tail call ptr @proto_tree_add_item(ptr noundef nonnull %3, i32 noundef %6, ptr noundef %0, i32 noundef %1, i32 noundef -1, i32 noundef 0)
  %13 = load i32, ptr @ett_witness_witness_IPaddrInfo, align 4
  %14 = tail call ptr @proto_item_add_subtree(ptr noundef %12, i32 noundef %13)
  br label %15

15:                                               ; preds = %11, %8
  %.032 = phi ptr [ %14, %11 ], [ null, %8 ]
  %.0 = phi ptr [ %12, %11 ], [ null, %8 ]
  %16 = load i32, ptr @hf_witness_witness_IPaddrInfo_flags, align 4
  %17 = tail call i32 @witness_dissect_bitmap_IPaddrInfo_flags(ptr noundef %0, i32 noundef %1, ptr noundef %2, ptr noundef %.032, ptr noundef %4, ptr noundef %5, i32 noundef %16, i32 poison)
  %18 = load i32, ptr @hf_witness_witness_IPaddrInfo_ipv4, align 4
  %19 = tail call fastcc noundef i32 @PIDL_dissect_ipv4address(ptr noundef %0, i32 noundef %17, ptr noundef readonly %2, ptr noundef %.032, ptr noundef readonly %4, i32 noundef %18)
  %20 = load i32, ptr @hf_witness_witness_IPaddrInfo_ipv6, align 4
  %21 = tail call fastcc noundef i32 @PIDL_dissect_ipv6address(ptr noundef %0, i32 noundef %19, ptr noundef readonly %2, ptr noundef %.032, ptr noundef readonly %4, i32 noundef %20)
  %22 = sub i32 %21, %1
  tail call void @proto_item_set_len(ptr noundef %.0, i32 noundef %22)
  store i8 %10, ptr %9, align 2
  ret i32 %21
}